target datalayout = "e-m:e-p270:32:32-p271:32:32-p272:64:64-i64:64-i128:128-f80:128-n8:16:32:64-S128"
target triple = "x86_64-pc-linux-gnu"

%"class.rocksdb::Status" = type { i8, i8, i8, i8, i8, i8, %"class.std::unique_ptr" }
%"class.std::unique_ptr" = type { %"struct.std::__uniq_ptr_data" }
%"struct.std::__uniq_ptr_data" = type { %"class.std::__uniq_ptr_impl" }
%"class.std::__uniq_ptr_impl" = type { %"class.std::tuple" }
%"class.std::tuple" = type { %"struct.std::_Tuple_impl" }
%"struct.std::_Tuple_impl" = type { %"struct.std::_Head_base.1" }
%"struct.std::_Head_base.1" = type { ptr }
%"class.std::__shared_count" = type { ptr }
%"struct.rocksdb::EnvWrapper::Target" = type { ptr, %"class.std::shared_ptr.135" }
%"class.std::shared_ptr.135" = type { %"class.std::__shared_ptr.136" }
%"class.std::__shared_ptr.136" = type { ptr, %"class.std::__shared_count" }
%"class.rocksdb::Slice" = type { ptr, i64 }

@.str.5 = private unnamed_addr constant [1 x i8] zeroinitializer, align 1
@.str.18 = private unnamed_addr constant [25 x i8] c"Target Env not specified\00", align 1

; Function Attrs: mustprogress uwtable
define linkonce_odr void @_ZN7rocksdb6StatusC2ENS0_4CodeERKNS_5SliceES4_(ptr noundef nonnull align 8 dereferenceable(16) %0, i8 noundef zeroext %1, ptr noundef nonnull align 8 dereferenceable(16) %2, ptr noundef nonnull align 8 dereferenceable(16) %3) unnamed_addr #0 comdat align 2 {
  %5 = alloca ptr, align 8
  %6 = alloca i8, align 1
  %7 = alloca ptr, align 8
  %8 = alloca ptr, align 8
  store ptr %0, ptr %5, align 8, !tbaa !36
  store i8 %1, ptr %6, align 1, !tbaa !84
  store ptr %2, ptr %7, align 8, !tbaa !356
  store ptr %3, ptr %8, align 8, !tbaa !356
  %9 = load ptr, ptr %5, align 8
  %10 = load i8, ptr %6, align 1, !tbaa !84
  %11 = load ptr, ptr %7, align 8, !tbaa !356
  %12 = load ptr, ptr %8, align 8, !tbaa !356
  call void @_ZN7rocksdb6StatusC2ENS0_4CodeENS0_7SubCodeERKNS_5SliceES5_NS0_8SeverityE(ptr noundef nonnull align 8 dereferenceable(16) %9, i8 noundef zeroext %10, i8 noundef zeroext 0, ptr noundef nonnull align 8 dereferenceable(16) %11, ptr noundef nonnull align 8 dereferenceable(16) %12, i8 noundef zeroext 0)
  ret void
}

; Function Attrs: mustprogress uwtable
define linkonce_odr void @_ZN7rocksdb6Status15InvalidArgumentERKNS_5SliceES3_(ptr dead_on_unwind noalias writable sret(%"class.rocksdb::Status") align 8 %0, ptr noundef nonnull align 8 dereferenceable(16) %1, ptr noundef nonnull align 8 dereferenceable(16) %2) #0 comdat align 2 {
  %4 = alloca ptr, align 8
  %5 = alloca ptr, align 8
  %6 = alloca ptr, align 8
  store ptr %0, ptr %4, align 8
  store ptr %1, ptr %5, align 8, !tbaa !356
  store ptr %2, ptr %6, align 8, !tbaa !356
  %7 = load ptr, ptr %5, align 8, !tbaa !356
  %8 = load ptr, ptr %6, align 8, !tbaa !356
  call void @_ZN7rocksdb6StatusC2ENS0_4CodeERKNS_5SliceES4_(ptr noundef nonnull align 8 dereferenceable(16) %0, i8 noundef zeroext 4, ptr noundef nonnull align 8 dereferenceable(16) %7, ptr noundef nonnull align 8 dereferenceable(16) %8)
  ret void
}

; Function Attrs: mustprogress nounwind uwtable
define linkonce_odr void @_ZN7rocksdb5SliceC2Ev(ptr noundef nonnull align 8 dereferenceable(16) %0) unnamed_addr #2 comdat align 2 {
  %2 = alloca ptr, align 8
  store ptr %0, ptr %2, align 8, !tbaa !356
  %3 = load ptr, ptr %2, align 8
  %4 = getelementptr inbounds nuw %"class.rocksdb::Slice", ptr %3, i32 0, i32 0
  store ptr @.str.5, ptr %4, align 8, !tbaa !434
  %5 = getelementptr inbounds nuw %"class.rocksdb::Slice", ptr %3, i32 0, i32 1
  store i64 0, ptr %5, align 8, !tbaa !435
  ret void
}

; Function Attrs: mustprogress nounwind uwtable
define linkonce_odr void @_ZN7rocksdb5SliceC2EPKc(ptr noundef nonnull align 8 dereferenceable(16) %0, ptr noundef %1) unnamed_addr #2 comdat align 2 {
  %3 = alloca ptr, align 8
  %4 = alloca ptr, align 8
  store ptr %0, ptr %3, align 8, !tbaa !356
  store ptr %1, ptr %4, align 8, !tbaa !191
  %5 = load ptr, ptr %3, align 8
  %6 = getelementptr inbounds nuw %"class.rocksdb::Slice", ptr %5, i32 0, i32 0
  %7 = load ptr, ptr %4, align 8, !tbaa !191
  store ptr %7, ptr %6, align 8, !tbaa !434
  %8 = load ptr, ptr %4, align 8, !tbaa !191
  %9 = icmp eq ptr %8, null
  br i1 %9, label %10, label %11

10:                                               ; preds = %2
  br label %14

11:                                               ; preds = %2
  %12 = load ptr, ptr %4, align 8, !tbaa !191
  %13 = call i64 @strlen(ptr noundef %12) #25
  br label %14

14:                                               ; preds = %11, %10
  %15 = phi i64 [ 0, %10 ], [ %13, %11 ]
  %16 = getelementptr inbounds nuw %"class.rocksdb::Slice", ptr %5, i32 0, i32 1
  store i64 %15, ptr %16, align 8, !tbaa !435
  ret void
}

; Function Attrs: inlinehint mustprogress uwtable
define internal void @"_ZNK7rocksdb12_GLOBAL__N_13$_3clERKNS_9DBOptionsERKNS_19ColumnFamilyOptionsERKNSt7__cxx1112basic_stringIcSt11char_traitsIcESaIcEEEPKv"(ptr dead_on_unwind noalias writable sret(%"class.rocksdb::Status") align 8 %0, ptr noundef nonnull align 1 dereferenceable(1) %1, ptr noundef nonnull align 8 dereferenceable(706) %2, ptr noundef nonnull align 8 dereferenceable(832) %3, ptr noundef nonnull align 8 dereferenceable(32) %4, ptr noundef %5) #14 align 2 {
  %7 = alloca ptr, align 8
  %8 = alloca ptr, align 8
  %9 = alloca ptr, align 8
  %10 = alloca ptr, align 8
  %11 = alloca ptr, align 8
  %12 = alloca ptr, align 8
  %13 = alloca ptr, align 8
  %14 = alloca %"class.rocksdb::Slice", align 8
  %15 = alloca %"class.rocksdb::Slice", align 8
  %16 = alloca i32, align 4
  store ptr %0, ptr %7, align 8
  store ptr %1, ptr %8, align 8, !tbaa !182
  store ptr %2, ptr %9, align 8, !tbaa !286
  store ptr %3, ptr %10, align 8, !tbaa !735
  store ptr %4, ptr %11, align 8, !tbaa !9
  store ptr %5, ptr %12, align 8, !tbaa !182
  call void @llvm.lifetime.start.p0(i64 8, ptr %13) #7
  %17 = load ptr, ptr %12, align 8, !tbaa !182
  store ptr %17, ptr %13, align 8, !tbaa !215
  %18 = load ptr, ptr %13, align 8, !tbaa !215
  %19 = getelementptr inbounds nuw %"struct.rocksdb::EnvWrapper::Target", ptr %18, i32 0, i32 0
  %20 = load ptr, ptr %19, align 8, !tbaa !217
  %21 = icmp eq ptr %20, null
  br i1 %21, label %22, label %23

22:                                               ; preds = %6
  call void @llvm.lifetime.start.p0(i64 16, ptr %14) #7
  call void @_ZN7rocksdb5SliceC2EPKc(ptr noundef nonnull align 8 dereferenceable(16) %14, ptr noundef @.str.18)
  call void @llvm.lifetime.start.p0(i64 16, ptr %15) #7
  call void @_ZN7rocksdb5SliceC2Ev(ptr noundef nonnull align 8 dereferenceable(16) %15)
  call void @_ZN7rocksdb6Status15InvalidArgumentERKNS_5SliceES3_(ptr dead_on_unwind writable sret(%"class.rocksdb::Status") align 8 %0, ptr noundef nonnull align 8 dereferenceable(16) %14, ptr noundef nonnull align 8 dereferenceable(16) %15)
  call void @llvm.lifetime.end.p0(i64 16, ptr %15) #7
  call void @llvm.lifetime.end.p0(i64 16, ptr %14) #7
  store i32 1, ptr %16, align 4
  br label %32

23:                                               ; preds = %6
  %24 = load ptr, ptr %13, align 8, !tbaa !215
  %25 = getelementptr inbounds nuw %"struct.rocksdb::EnvWrapper::Target", ptr %24, i32 0, i32 0
  %26 = load ptr, ptr %25, align 8, !tbaa !217
  %27 = load ptr, ptr %9, align 8, !tbaa !286
  %28 = load ptr, ptr %10, align 8, !tbaa !735
  %29 = load ptr, ptr %26, align 8, !tbaa !15
  %30 = getelementptr inbounds ptr, ptr %29, i64 6
  %31 = load ptr, ptr %30, align 8
  call void %31(ptr dead_on_unwind writable sret(%"class.rocksdb::Status") align 8 %0, ptr noundef nonnull align 8 dereferenceable(32) %26, ptr noundef nonnull align 8 dereferenceable(706) %27, ptr noundef nonnull align 8 dereferenceable(832) %28)
  store i32 1, ptr %16, align 4
  br label %32

32:                                               ; preds = %23, %22
  call void @llvm.lifetime.end.p0(i64 8, ptr %13) #7
  ret void
}

; Function Attrs: mustprogress nounwind uwtable
define linkonce_odr noundef ptr @_ZNKSt9_Any_data9_M_accessEv(ptr noundef nonnull align 8 dereferenceable(16) %0) #2 comdat align 2 {
  %2 = alloca ptr, align 8
  store ptr %0, ptr %2, align 8, !tbaa !581
  %3 = load ptr, ptr %2, align 8
  %4 = getelementptr inbounds [16 x i8], ptr %3, i64 0, i64 0
  ret ptr %4
}

; Function Attrs: mustprogress uwtable
define internal void @"_ZSt13__invoke_implIN7rocksdb6StatusERNS0_12_GLOBAL__N_13$_3EJRKNS0_9DBOptionsERKNS0_19ColumnFamilyOptionsERKNSt7__cxx1112basic_stringIcSt11char_traitsIcESaIcEEEPKvEET_St14__invoke_otherOT0_DpOT1_"(ptr dead_on_unwind noalias writable sret(%"class.rocksdb::Status") align 8 %0, ptr noundef nonnull align 1 dereferenceable(1) %1, ptr noundef nonnull align 8 dereferenceable(706) %2, ptr noundef nonnull align 8 dereferenceable(832) %3, ptr noundef nonnull align 8 dereferenceable(32) %4, ptr noundef nonnull align 8 dereferenceable(8) %5) #0 {
  %7 = alloca ptr, align 8
  %8 = alloca ptr, align 8
  %9 = alloca ptr, align 8
  %10 = alloca ptr, align 8
  %11 = alloca ptr, align 8
  %12 = alloca ptr, align 8
  store ptr %0, ptr %7, align 8
  store ptr %1, ptr %8, align 8, !tbaa !182
  store ptr %2, ptr %9, align 8, !tbaa !286
  store ptr %3, ptr %10, align 8, !tbaa !735
  store ptr %4, ptr %11, align 8, !tbaa !9
  store ptr %5, ptr %12, align 8, !tbaa !457
  %13 = load ptr, ptr %8, align 8, !tbaa !182
  %14 = load ptr, ptr %9, align 8, !tbaa !286
  %15 = load ptr, ptr %10, align 8, !tbaa !735
  %16 = load ptr, ptr %11, align 8, !tbaa !9
  %17 = load ptr, ptr %12, align 8, !tbaa !457
  %18 = load ptr, ptr %17, align 8, !tbaa !182
  call void @"_ZNK7rocksdb12_GLOBAL__N_13$_3clERKNS_9DBOptionsERKNS_19ColumnFamilyOptionsERKNSt7__cxx1112basic_stringIcSt11char_traitsIcESaIcEEEPKv"(ptr dead_on_unwind writable sret(%"class.rocksdb::Status") align 8 %0, ptr noundef nonnull align 1 dereferenceable(1) %13, ptr noundef nonnull align 8 dereferenceable(706) %14, ptr noundef nonnull align 8 dereferenceable(832) %15, ptr noundef nonnull align 8 dereferenceable(32) %16, ptr noundef %18)
  ret void
}

; Function Attrs: mustprogress nounwind uwtable
define internal noundef nonnull align 1 dereferenceable(1) ptr @"_ZNKSt9_Any_data9_M_accessIN7rocksdb12_GLOBAL__N_13$_3EEERKT_v"(ptr noundef nonnull align 8 dereferenceable(16) %0) #2 align 2 {
  %2 = alloca ptr, align 8
  store ptr %0, ptr %2, align 8, !tbaa !581
  %3 = load ptr, ptr %2, align 8
  %4 = call noundef ptr @_ZNKSt9_Any_data9_M_accessEv(ptr noundef nonnull align 8 dereferenceable(16) %3) #7
  ret ptr %4
}

; Function Attrs: mustprogress uwtable
define internal void @"_ZSt10__invoke_rIN7rocksdb6StatusERNS0_12_GLOBAL__N_13$_3EJRKNS0_9DBOptionsERKNS0_19ColumnFamilyOptionsERKNSt7__cxx1112basic_stringIcSt11char_traitsIcESaIcEEEPKvEENSt9enable_ifIX16is_invocable_r_vIT_T0_DpT1_EESM_E4typeEOSN_DpOSO_"(ptr dead_on_unwind noalias writable sret(%"class.rocksdb::Status") align 8 %0, ptr noundef nonnull align 1 dereferenceable(1) %1, ptr noundef nonnull align 8 dereferenceable(706) %2, ptr noundef nonnull align 8 dereferenceable(832) %3, ptr noundef nonnull align 8 dereferenceable(32) %4, ptr noundef nonnull align 8 dereferenceable(8) %5) #0 {
  %7 = alloca ptr, align 8
  %8 = alloca ptr, align 8
  %9 = alloca ptr, align 8
  %10 = alloca ptr, align 8
  %11 = alloca ptr, align 8
  %12 = alloca ptr, align 8
  store ptr %0, ptr %7, align 8
  store ptr %1, ptr %8, align 8, !tbaa !182
  store ptr %2, ptr %9, align 8, !tbaa !286
  store ptr %3, ptr %10, align 8, !tbaa !735
  store ptr %4, ptr %11, align 8, !tbaa !9
  store ptr %5, ptr %12, align 8, !tbaa !457
  %13 = load ptr, ptr %8, align 8, !tbaa !182
  %14 = load ptr, ptr %9, align 8, !tbaa !286
  %15 = load ptr, ptr %10, align 8, !tbaa !735
  %16 = load ptr, ptr %11, align 8, !tbaa !9
  %17 = load ptr, ptr %12, align 8, !tbaa !457
  call void @"_ZSt13__invoke_implIN7rocksdb6StatusERNS0_12_GLOBAL__N_13$_3EJRKNS0_9DBOptionsERKNS0_19ColumnFamilyOptionsERKNSt7__cxx1112basic_stringIcSt11char_traitsIcESaIcEEEPKvEET_St14__invoke_otherOT0_DpOT1_"(ptr dead_on_unwind writable sret(%"class.rocksdb::Status") align 8 %0, ptr noundef nonnull align 1 dereferenceable(1) %13, ptr noundef nonnull align 8 dereferenceable(706) %14, ptr noundef nonnull align 8 dereferenceable(832) %15, ptr noundef nonnull align 8 dereferenceable(32) %16, ptr noundef nonnull align 8 dereferenceable(8) %17)
  ret void
}

; Function Attrs: mustprogress nounwind uwtable
define internal noundef ptr @"_ZNSt14_Function_base13_Base_managerIN7rocksdb12_GLOBAL__N_13$_3EE14_M_get_pointerERKSt9_Any_data"(ptr noundef nonnull align 8 dereferenceable(16) %0) #2 align 2 {
  %2 = alloca ptr, align 8
  %3 = alloca ptr, align 8
  store ptr %0, ptr %2, align 8, !tbaa !581
  call void @llvm.lifetime.start.p0(i64 8, ptr %3) #7
  %4 = load ptr, ptr %2, align 8, !tbaa !581
  %5 = call noundef nonnull align 1 dereferenceable(1) ptr @"_ZNKSt9_Any_data9_M_accessIN7rocksdb12_GLOBAL__N_13$_3EEERKT_v"(ptr noundef nonnull align 8 dereferenceable(16) %4) #7
  store ptr %5, ptr %3, align 8, !tbaa !182
  %6 = load ptr, ptr %3, align 8, !tbaa !182
  call void @llvm.lifetime.end.p0(i64 8, ptr %3) #7
  ret ptr %6
}

; Function Attrs: mustprogress uwtable
define internal void @"_ZNSt17_Function_handlerIFN7rocksdb6StatusERKNS0_9DBOptionsERKNS0_19ColumnFamilyOptionsERKNSt7__cxx1112basic_stringIcSt11char_traitsIcESaIcEEEPKvENS0_12_GLOBAL__N_13$_3EE9_M_invokeERKSt9_Any_dataS4_S7_SF_OSH_"(ptr dead_on_unwind noalias writable sret(%"class.rocksdb::Status") align 8 %0, ptr noundef nonnull align 8 dereferenceable(16) %1, ptr noundef nonnull align 8 dereferenceable(706) %2, ptr noundef nonnull align 8 dereferenceable(832) %3, ptr noundef nonnull align 8 dereferenceable(32) %4, ptr noundef nonnull align 8 dereferenceable(8) %5) #0 align 2 {
  %7 = alloca ptr, align 8
  %8 = alloca ptr, align 8
  %9 = alloca ptr, align 8
  %10 = alloca ptr, align 8
  %11 = alloca ptr, align 8
  %12 = alloca ptr, align 8
  store ptr %0, ptr %7, align 8
  store ptr %1, ptr %8, align 8, !tbaa !581
  store ptr %2, ptr %9, align 8, !tbaa !286
  store ptr %3, ptr %10, align 8, !tbaa !735
  store ptr %4, ptr %11, align 8, !tbaa !9
  store ptr %5, ptr %12, align 8, !tbaa !457
  %13 = load ptr, ptr %8, align 8, !tbaa !581
  %14 = call noundef ptr @"_ZNSt14_Function_base13_Base_managerIN7rocksdb12_GLOBAL__N_13$_3EE14_M_get_pointerERKSt9_Any_data"(ptr noundef nonnull align 8 dereferenceable(16) %13) #7
  %15 = load ptr, ptr %9, align 8, !tbaa !286
  %16 = load ptr, ptr %10, align 8, !tbaa !735
  %17 = load ptr, ptr %11, align 8, !tbaa !9
  %18 = load ptr, ptr %12, align 8, !tbaa !457
  call void @"_ZSt10__invoke_rIN7rocksdb6StatusERNS0_12_GLOBAL__N_13$_3EJRKNS0_9DBOptionsERKNS0_19ColumnFamilyOptionsERKNSt7__cxx1112basic_stringIcSt11char_traitsIcESaIcEEEPKvEENSt9enable_ifIX16is_invocable_r_vIT_T0_DpT1_EESM_E4typeEOSN_DpOSO_"(ptr dead_on_unwind writable sret(%"class.rocksdb::Status") align 8 %0, ptr noundef nonnull align 1 dereferenceable(1) %14, ptr noundef nonnull align 8 dereferenceable(706) %15, ptr noundef nonnull align 8 dereferenceable(832) %16, ptr noundef nonnull align 8 dereferenceable(32) %17, ptr noundef nonnull align 8 dereferenceable(8) %18)
  ret void
}