; Function Attrs: mustprogress uwtable
define internal void @"_ZNSt17_Function_handlerIFN7rocksdb6StatusERKNS0_9DBOptionsERKNS0_19ColumnFamilyOptionsERKNSt7__cxx1112basic_stringIcSt11char_traitsIcESaIcEEEPKvENS0_12_GLOBAL__N_13$_3EE9_M_invokeERKSt9_Any_dataS4_S7_SF_OSH_"(ptr dead_on_unwind noalias writable sret(%"class.rocksdb::Status") align 8 %0, ptr nonnull readnone align 8 captures(none) %1, ptr noundef nonnull align 8 dereferenceable(706) %2, ptr noundef nonnull align 8 dereferenceable(832) %3, ptr nonnull readnone align 8 captures(none) %4, ptr noundef nonnull readonly align 8 captures(none) dereferenceable(8) %5) #0 align 2 {
  %7 = alloca %"class.rocksdb::Slice", align 8
  %8 = alloca %"class.rocksdb::Slice", align 8
  %.val = load ptr, ptr %5, align 8, !tbaa !248
  %.val.val = load ptr, ptr %.val, align 8, !tbaa !162
  %9 = icmp eq ptr %.val.val, null
  br i1 %9, label %10, label %13

10:                                               ; preds = %6
  call void @llvm.lifetime.start.p0(i64 16, ptr nonnull %7) #24, !noalias !260
  store ptr @.str.18, ptr %7, align 8, !tbaa !207, !noalias !260
  %11 = getelementptr inbounds nuw i8, ptr %7, i64 8
  store i64 24, ptr %11, align 8, !tbaa !209, !noalias !260
  call void @llvm.lifetime.start.p0(i64 16, ptr nonnull %8) #24, !noalias !260
  store ptr @.str.5, ptr %8, align 8, !tbaa !207, !noalias !260
  %12 = getelementptr inbounds nuw i8, ptr %8, i64 8
  store i64 0, ptr %12, align 8, !tbaa !209, !noalias !260
  call void @_ZN7rocksdb6StatusC2ENS0_4CodeENS0_7SubCodeERKNS_5SliceES5_NS0_8SeverityE(ptr noundef nonnull align 8 dereferenceable(16) %0, i8 noundef zeroext 4, i8 noundef zeroext 0, ptr noundef nonnull align 8 dereferenceable(16) %7, ptr noundef nonnull align 8 dereferenceable(16) %8, i8 noundef zeroext 0)
  call void @llvm.lifetime.end.p0(i64 16, ptr nonnull %8) #24, !noalias !260
  call void @llvm.lifetime.end.p0(i64 16, ptr nonnull %7) #24, !noalias !260
  br label %"_ZSt10__invoke_rIN7rocksdb6StatusERNS0_12_GLOBAL__N_13$_3EJRKNS0_9DBOptionsERKNS0_19ColumnFamilyOptionsERKNSt7__cxx1112basic_stringIcSt11char_traitsIcESaIcEEEPKvEENSt9enable_ifIX16is_invocable_r_vIT_T0_DpT1_EESM_E4typeEOSN_DpOSO_.exit"

13:                                               ; preds = %6
  %14 = load ptr, ptr %.val.val, align 8, !tbaa !73, !noalias !260
  %15 = getelementptr inbounds nuw i8, ptr %14, i64 48
  %16 = load ptr, ptr %15, align 8, !noalias !260
  tail call void %16(ptr dead_on_unwind writable sret(%"class.rocksdb::Status") align 8 %0, ptr noundef nonnull align 8 dereferenceable(32) %.val.val, ptr noundef nonnull align 8 dereferenceable(706) %2, ptr noundef nonnull align 8 dereferenceable(832) %3)
  br label %"_ZSt10__invoke_rIN7rocksdb6StatusERNS0_12_GLOBAL__N_13$_3EJRKNS0_9DBOptionsERKNS0_19ColumnFamilyOptionsERKNSt7__cxx1112basic_stringIcSt11char_traitsIcESaIcEEEPKvEENSt9enable_ifIX16is_invocable_r_vIT_T0_DpT1_EESM_E4typeEOSN_DpOSO_.exit"

"_ZSt10__invoke_rIN7rocksdb6StatusERNS0_12_GLOBAL__N_13$_3EJRKNS0_9DBOptionsERKNS0_19ColumnFamilyOptionsERKNSt7__cxx1112basic_stringIcSt11char_traitsIcESaIcEEEPKvEENSt9enable_ifIX16is_invocable_r_vIT_T0_DpT1_EESM_E4typeEOSN_DpOSO_.exit": ; preds = %10, %13
  ret void
}